target datalayout = "e-m:e-p270:32:32-p271:32:32-p272:64:64-i64:64-i128:128-f80:128-n8:16:32:64-S128"
target triple = "x86_64-pc-linux-gnu"

%struct.SwrContext = type { ptr, i32, ptr, i32, i32, i32, %struct.AVChannelLayout, %struct.AVChannelLayout, %struct.AVChannelLayout, i32, i32, i32, float, float, float, float, float, i32, ptr, i32, %struct.AVChannelLayout, %struct.AVChannelLayout, %struct.AVChannelLayout, i32, i32, %struct.DitherContext, i32, i32, i32, i32, double, i32, double, double, i32, float, float, float, float, float, i64, i32, i32, i32, %struct.AudioData, %struct.AudioData, %struct.AudioData, %struct.AudioData, %struct.AudioData, %struct.AudioData, %struct.AudioData, %struct.AudioData, i32, i32, i32, i32, i64, i64, i32, double, ptr, ptr, ptr, ptr, ptr, [64 x [64 x double]], [64 x [64 x float]], ptr, ptr, ptr, ptr, [64 x [64 x i32]], [64 x [65 x i8]], ptr, ptr, ptr, ptr, ptr }
%struct.AVChannelLayout = type { i32, i32, %union.anon, ptr }
%union.anon = type { i64 }
%struct.DitherContext = type { i32, i32, float, float, i32, float, float, i32, [20 x float], [64 x [40 x float]], %struct.AudioData, %struct.AudioData, i32 }
%struct.AudioData = type { [64 x ptr], ptr, i32, i32, i32, i32, i32 }

; Function Attrs: cold nounwind optsize uwtable
define internal i32 @auto_matrix(ptr noundef %0) #3 {
  %2 = alloca ptr, align 8
  %3 = alloca double, align 8
  %4 = alloca i32, align 4
  %5 = alloca i32, align 4
  %6 = alloca i32, align 4
  store ptr %0, ptr %2, align 8, !tbaa !4
  call void @llvm.lifetime.start.p0(i64 8, ptr %3) #9
  call void @llvm.lifetime.start.p0(i64 4, ptr %4) #9
  %7 = load ptr, ptr %2, align 8, !tbaa !4
  %8 = getelementptr inbounds nuw %struct.SwrContext, ptr %7, i32 0, i32 16
  %9 = load float, ptr %8, align 4, !tbaa !74
  %10 = fcmp nsz ogt float %9, 0.000000e+00
  br i1 %10, label %11, label %16

11:                                               ; preds = %1
  %12 = load ptr, ptr %2, align 8, !tbaa !4
  %13 = getelementptr inbounds nuw %struct.SwrContext, ptr %12, i32 0, i32 16
  %14 = load float, ptr %13, align 4, !tbaa !74
  %15 = fpext nsz float %14 to double
  store double %15, ptr %3, align 8, !tbaa !29
  br label %31

16:                                               ; preds = %1
  %17 = load ptr, ptr %2, align 8, !tbaa !4
  %18 = getelementptr inbounds nuw %struct.SwrContext, ptr %17, i32 0, i32 5
  %19 = load i32, ptr %18, align 8, !tbaa !75
  %20 = call i32 @av_get_packed_sample_fmt(i32 noundef %19)
  %21 = icmp slt i32 %20, 3
  br i1 %21, label %28, label %22

22:                                               ; preds = %16
  %23 = load ptr, ptr %2, align 8, !tbaa !4
  %24 = getelementptr inbounds nuw %struct.SwrContext, ptr %23, i32 0, i32 4
  %25 = load i32, ptr %24, align 4, !tbaa !76
  %26 = call i32 @av_get_packed_sample_fmt(i32 noundef %25)
  %27 = icmp slt i32 %26, 3
  br i1 %27, label %28, label %29

28:                                               ; preds = %22, %16
  store double 1.000000e+00, ptr %3, align 8, !tbaa !29
  br label %30

29:                                               ; preds = %22
  store double 0x41DFFFFFFFC00000, ptr %3, align 8, !tbaa !29
  br label %30

30:                                               ; preds = %29, %28
  br label %31

31:                                               ; preds = %30, %11
  %32 = load ptr, ptr %2, align 8, !tbaa !4
  %33 = getelementptr inbounds nuw %struct.SwrContext, ptr %32, i32 0, i32 65
  %34 = getelementptr inbounds [64 x [64 x double]], ptr %33, i64 0, i64 0
  call void @llvm.memset.p0.i64(ptr align 8 %34, i8 0, i64 32768, i1 false)
  %35 = load ptr, ptr %2, align 8, !tbaa !4
  %36 = getelementptr inbounds nuw %struct.SwrContext, ptr %35, i32 0, i32 7
  %37 = load ptr, ptr %2, align 8, !tbaa !4
  %38 = getelementptr inbounds nuw %struct.SwrContext, ptr %37, i32 0, i32 8
  %39 = load ptr, ptr %2, align 8, !tbaa !4
  %40 = getelementptr inbounds nuw %struct.SwrContext, ptr %39, i32 0, i32 13
  %41 = load float, ptr %40, align 8, !tbaa !77
  %42 = fpext nsz float %41 to double
  %43 = load ptr, ptr %2, align 8, !tbaa !4
  %44 = getelementptr inbounds nuw %struct.SwrContext, ptr %43, i32 0, i32 12
  %45 = load float, ptr %44, align 4, !tbaa !78
  %46 = fpext nsz float %45 to double
  %47 = load ptr, ptr %2, align 8, !tbaa !4
  %48 = getelementptr inbounds nuw %struct.SwrContext, ptr %47, i32 0, i32 14
  %49 = load float, ptr %48, align 4, !tbaa !79
  %50 = fpext nsz float %49 to double
  %51 = load double, ptr %3, align 8, !tbaa !29
  %52 = load ptr, ptr %2, align 8, !tbaa !4
  %53 = getelementptr inbounds nuw %struct.SwrContext, ptr %52, i32 0, i32 15
  %54 = load float, ptr %53, align 8, !tbaa !80
  %55 = fpext nsz float %54 to double
  %56 = load ptr, ptr %2, align 8, !tbaa !4
  %57 = getelementptr inbounds nuw %struct.SwrContext, ptr %56, i32 0, i32 65
  %58 = getelementptr inbounds [64 x [64 x double]], ptr %57, i64 0, i64 0
  %59 = load ptr, ptr %2, align 8, !tbaa !4
  %60 = getelementptr inbounds nuw %struct.SwrContext, ptr %59, i32 0, i32 65
  %61 = getelementptr inbounds [64 x [64 x double]], ptr %60, i64 0, i64 1
  %62 = getelementptr inbounds [64 x double], ptr %61, i64 0, i64 0
  %63 = load ptr, ptr %2, align 8, !tbaa !4
  %64 = getelementptr inbounds nuw %struct.SwrContext, ptr %63, i32 0, i32 65
  %65 = getelementptr inbounds [64 x [64 x double]], ptr %64, i64 0, i64 0
  %66 = getelementptr inbounds [64 x double], ptr %65, i64 0, i64 0
  %67 = ptrtoint ptr %62 to i64
  %68 = ptrtoint ptr %66 to i64
  %69 = sub i64 %67, %68
  %70 = sdiv exact i64 %69, 8
  %71 = load ptr, ptr %2, align 8, !tbaa !4
  %72 = getelementptr inbounds nuw %struct.SwrContext, ptr %71, i32 0, i32 17
  %73 = load i32, ptr %72, align 8, !tbaa !81
  %74 = load ptr, ptr %2, align 8, !tbaa !4
  %75 = call i32 @swr_build_matrix2(ptr noundef %36, ptr noundef %38, double noundef %42, double noundef %46, double noundef %50, double noundef %51, double noundef %55, ptr noundef %58, i64 noundef %70, i32 noundef %73, ptr noundef %74) #11
  store i32 %75, ptr %4, align 4, !tbaa !11
  %76 = load i32, ptr %4, align 4, !tbaa !11
  %77 = icmp sge i32 %76, 0
  br i1 %77, label %78, label %120

78:                                               ; preds = %31
  %79 = load ptr, ptr %2, align 8, !tbaa !4
  %80 = getelementptr inbounds nuw %struct.SwrContext, ptr %79, i32 0, i32 4
  %81 = load i32, ptr %80, align 4, !tbaa !76
  %82 = icmp eq i32 %81, 8
  br i1 %82, label %83, label %120

83:                                               ; preds = %78
  call void @llvm.lifetime.start.p0(i64 4, ptr %5) #9
  call void @llvm.lifetime.start.p0(i64 4, ptr %6) #9
  store i32 0, ptr %5, align 4, !tbaa !11
  br label %84

84:                                               ; preds = %116, %83
  %85 = load i32, ptr %5, align 4, !tbaa !11
  %86 = sext i32 %85 to i64
  %87 = icmp ult i64 %86, 64
  br i1 %87, label %88, label %119

88:                                               ; preds = %84
  store i32 0, ptr %6, align 4, !tbaa !11
  br label %89

89:                                               ; preds = %112, %88
  %90 = load i32, ptr %6, align 4, !tbaa !11
  %91 = sext i32 %90 to i64
  %92 = icmp ult i64 %91, 64
  br i1 %92, label %93, label %115

93:                                               ; preds = %89
  %94 = load ptr, ptr %2, align 8, !tbaa !4
  %95 = getelementptr inbounds nuw %struct.SwrContext, ptr %94, i32 0, i32 65
  %96 = load i32, ptr %5, align 4, !tbaa !11
  %97 = sext i32 %96 to i64
  %98 = getelementptr inbounds [64 x [64 x double]], ptr %95, i64 0, i64 %97
  %99 = load i32, ptr %6, align 4, !tbaa !11
  %100 = sext i32 %99 to i64
  %101 = getelementptr inbounds [64 x double], ptr %98, i64 0, i64 %100
  %102 = load double, ptr %101, align 8, !tbaa !29
  %103 = fptrunc nsz double %102 to float
  %104 = load ptr, ptr %2, align 8, !tbaa !4
  %105 = getelementptr inbounds nuw %struct.SwrContext, ptr %104, i32 0, i32 66
  %106 = load i32, ptr %5, align 4, !tbaa !11
  %107 = sext i32 %106 to i64
  %108 = getelementptr inbounds [64 x [64 x float]], ptr %105, i64 0, i64 %107
  %109 = load i32, ptr %6, align 4, !tbaa !11
  %110 = sext i32 %109 to i64
  %111 = getelementptr inbounds [64 x float], ptr %108, i64 0, i64 %110
  store float %103, ptr %111, align 4, !tbaa !30
  br label %112

112:                                              ; preds = %93
  %113 = load i32, ptr %6, align 4, !tbaa !11
  %114 = add nsw i32 %113, 1
  store i32 %114, ptr %6, align 4, !tbaa !11
  br label %89, !llvm.loop !82

115:                                              ; preds = %89
  br label %116

116:                                              ; preds = %115
  %117 = load i32, ptr %5, align 4, !tbaa !11
  %118 = add nsw i32 %117, 1
  store i32 %118, ptr %5, align 4, !tbaa !11
  br label %84, !llvm.loop !83

119:                                              ; preds = %84
  call void @llvm.lifetime.end.p0(i64 4, ptr %6) #9
  call void @llvm.lifetime.end.p0(i64 4, ptr %5) #9
  br label %120

120:                                              ; preds = %119, %78, %31
  %121 = load i32, ptr %4, align 4, !tbaa !11
  call void @llvm.lifetime.end.p0(i64 4, ptr %4) #9
  call void @llvm.lifetime.end.p0(i64 8, ptr %3) #9
  ret i32 %121
}