; Function Attrs: cold nounwind optsize uwtable
define internal fastcc range(i32 -2147483648, 1) i32 @auto_matrix(ptr noundef initializes((16232, 49000)) %0) unnamed_addr #3 {
  %2 = getelementptr inbounds nuw i8, ptr %0, i64 140
  %3 = load float, ptr %2, align 4, !tbaa !66
  %4 = fcmp nsz ogt float %3, 0.000000e+00
  br i1 %4, label %5, label %7

5:                                                ; preds = %1
  %6 = fpext nsz float %3 to double
  br label %18

7:                                                ; preds = %1
  %8 = getelementptr inbounds nuw i8, ptr %0, i64 32
  %9 = load i32, ptr %8, align 8, !tbaa !67
  %10 = tail call i32 @av_get_packed_sample_fmt(i32 noundef %9) #11
  %11 = icmp slt i32 %10, 3
  br i1 %11, label %18, label %12

12:                                               ; preds = %7
  %13 = getelementptr inbounds nuw i8, ptr %0, i64 28
  %14 = load i32, ptr %13, align 4, !tbaa !68
  %15 = tail call i32 @av_get_packed_sample_fmt(i32 noundef %14) #11
  %16 = icmp slt i32 %15, 3
  br i1 %16, label %18, label %17

17:                                               ; preds = %12
  br label %18

18:                                               ; preds = %7, %12, %17, %5
  %.030 = phi nsz double [ %6, %5 ], [ 0x41DFFFFFFFC00000, %17 ], [ 1.000000e+00, %12 ], [ 1.000000e+00, %7 ]
  %19 = getelementptr inbounds nuw i8, ptr %0, i64 16232
  tail call void @llvm.memset.p0.i64(ptr noundef nonnull align 8 dereferenceable(32768) %19, i8 0, i64 32768, i1 false)
  %20 = getelementptr inbounds nuw i8, ptr %0, i64 64
  %21 = getelementptr inbounds nuw i8, ptr %0, i64 88
  %22 = getelementptr inbounds nuw i8, ptr %0, i64 128
  %23 = load float, ptr %22, align 8, !tbaa !69
  %24 = fpext nsz float %23 to double
  %25 = getelementptr inbounds nuw i8, ptr %0, i64 124
  %26 = load float, ptr %25, align 4, !tbaa !70
  %27 = fpext nsz float %26 to double
  %28 = getelementptr inbounds nuw i8, ptr %0, i64 132
  %29 = load float, ptr %28, align 4, !tbaa !71
  %30 = fpext nsz float %29 to double
  %31 = getelementptr inbounds nuw i8, ptr %0, i64 136
  %32 = load float, ptr %31, align 8, !tbaa !72
  %33 = fpext nsz float %32 to double
  %34 = getelementptr inbounds nuw i8, ptr %0, i64 144
  %35 = load i32, ptr %34, align 8, !tbaa !73
  %36 = tail call i32 @swr_build_matrix2(ptr noundef nonnull %20, ptr noundef nonnull %21, double noundef %24, double noundef %27, double noundef %30, double noundef %.030, double noundef %33, ptr noundef nonnull %19, i64 noundef 64, i32 noundef %35, ptr noundef nonnull %0) #13
  %37 = icmp sgt i32 %36, -1
  br i1 %37, label %38, label %.loopexit

38:                                               ; preds = %18
  %39 = getelementptr inbounds nuw i8, ptr %0, i64 28
  %40 = load i32, ptr %39, align 4, !tbaa !68
  %41 = icmp eq i32 %40, 8
  br i1 %41, label %.preheader34, label %.loopexit

.preheader34:                                     ; preds = %38
  %42 = getelementptr inbounds nuw i8, ptr %0, i64 49000
  br label %.preheader

.preheader:                                       ; preds = %.preheader34, %48
  %indvars.iv38 = phi i64 [ 0, %.preheader34 ], [ %indvars.iv.next39, %48 ]
  br label %43

43:                                               ; preds = %.preheader, %43
  %indvars.iv = phi i64 [ 0, %.preheader ], [ %indvars.iv.next, %43 ]
  %44 = getelementptr inbounds nuw [64 x [64 x double]], ptr %19, i64 0, i64 %indvars.iv38, i64 %indvars.iv
  %45 = load double, ptr %44, align 8, !tbaa !24
  %46 = fptrunc nsz double %45 to float
  %47 = getelementptr inbounds nuw [64 x [64 x float]], ptr %42, i64 0, i64 %indvars.iv38, i64 %indvars.iv
  store float %46, ptr %47, align 4, !tbaa !25
  %indvars.iv.next = add nuw nsw i64 %indvars.iv, 1
  %exitcond.not = icmp eq i64 %indvars.iv.next, 64
  br i1 %exitcond.not, label %48, label %43, !llvm.loop !74

48:                                               ; preds = %43
  %indvars.iv.next39 = add nuw nsw i64 %indvars.iv38, 1
  %exitcond41.not = icmp eq i64 %indvars.iv.next39, 64
  br i1 %exitcond41.not, label %.loopexit, label %.preheader, !llvm.loop !75

.loopexit:                                        ; preds = %48, %38, %18
  ret i32 %36
}